target datalayout = "e-m:e-p270:32:32-p271:32:32-p272:64:64-i64:64-i128:128-f80:128-n8:16:32:64-S128"
target triple = "x86_64-pc-linux-gnu"

%struct.IndexVacuumInfo = type { ptr, ptr, i8, i8, i8, i32, double, ptr }
%struct.IndexBulkDeleteResult = type { i32, i8, double, double, i32, i32, i32 }

; Function Attrs: nounwind uwtable
define dso_local ptr @btvacuumcleanup(ptr noundef %0, ptr noundef %1) #0 {
  %3 = alloca ptr, align 8
  %4 = alloca ptr, align 8
  %5 = alloca ptr, align 8
  %6 = alloca i32, align 4
  %7 = alloca i32, align 4
  store ptr %0, ptr %4, align 8
  store ptr %1, ptr %5, align 8
  call void @llvm.lifetime.start.p0(i64 4, ptr %6) #8
  %8 = load ptr, ptr %4, align 8
  %9 = getelementptr inbounds nuw %struct.IndexVacuumInfo, ptr %8, i32 0, i32 2
  %10 = load i8, ptr %9, align 8, !range !4, !noundef !5
  %11 = trunc i8 %10 to i1
  br i1 %11, label %12, label %14

12:                                               ; preds = %2
  %13 = load ptr, ptr %5, align 8
  store ptr %13, ptr %3, align 8
  store i32 1, ptr %7, align 4
  br label %62

14:                                               ; preds = %2
  %15 = load ptr, ptr %5, align 8
  %16 = icmp eq ptr %15, null
  br i1 %16, label %17, label %29

17:                                               ; preds = %14
  %18 = load ptr, ptr %4, align 8
  %19 = getelementptr inbounds nuw %struct.IndexVacuumInfo, ptr %18, i32 0, i32 0
  %20 = load ptr, ptr %19, align 8
  %21 = call zeroext i1 @_bt_vacuum_needs_cleanup(ptr noundef %20)
  br i1 %21, label %23, label %22

22:                                               ; preds = %17
  store ptr null, ptr %3, align 8
  store i32 1, ptr %7, align 4
  br label %62

23:                                               ; preds = %17
  %24 = call ptr @palloc0(i64 noundef 40)
  store ptr %24, ptr %5, align 8
  %25 = load ptr, ptr %4, align 8
  %26 = load ptr, ptr %5, align 8
  call void @btvacuumscan(ptr noundef %25, ptr noundef %26, ptr noundef null, ptr noundef null, i16 noundef zeroext 0)
  %27 = load ptr, ptr %5, align 8
  %28 = getelementptr inbounds nuw %struct.IndexBulkDeleteResult, ptr %27, i32 0, i32 1
  store i8 1, ptr %28, align 4
  br label %29

29:                                               ; preds = %23, %14
  %30 = load ptr, ptr %5, align 8
  %31 = getelementptr inbounds nuw %struct.IndexBulkDeleteResult, ptr %30, i32 0, i32 5
  %32 = load i32, ptr %31, align 4
  %33 = load ptr, ptr %5, align 8
  %34 = getelementptr inbounds nuw %struct.IndexBulkDeleteResult, ptr %33, i32 0, i32 6
  %35 = load i32, ptr %34, align 8
  %36 = sub i32 %32, %35
  store i32 %36, ptr %6, align 4
  %37 = load ptr, ptr %4, align 8
  %38 = getelementptr inbounds nuw %struct.IndexVacuumInfo, ptr %37, i32 0, i32 0
  %39 = load ptr, ptr %38, align 8
  %40 = load i32, ptr %6, align 4
  call void @_bt_set_cleanup_info(ptr noundef %39, i32 noundef %40)
  %41 = load ptr, ptr %4, align 8
  %42 = getelementptr inbounds nuw %struct.IndexVacuumInfo, ptr %41, i32 0, i32 4
  %43 = load i8, ptr %42, align 2, !range !4, !noundef !5
  %44 = trunc i8 %43 to i1
  br i1 %44, label %60, label %45

45:                                               ; preds = %29
  %46 = load ptr, ptr %5, align 8
  %47 = getelementptr inbounds nuw %struct.IndexBulkDeleteResult, ptr %46, i32 0, i32 2
  %48 = load double, ptr %47, align 8
  %49 = load ptr, ptr %4, align 8
  %50 = getelementptr inbounds nuw %struct.IndexVacuumInfo, ptr %49, i32 0, i32 6
  %51 = load double, ptr %50, align 8
  %52 = fcmp ogt double %48, %51
  br i1 %52, label %53, label %59

53:                                               ; preds = %45
  %54 = load ptr, ptr %4, align 8
  %55 = getelementptr inbounds nuw %struct.IndexVacuumInfo, ptr %54, i32 0, i32 6
  %56 = load double, ptr %55, align 8
  %57 = load ptr, ptr %5, align 8
  %58 = getelementptr inbounds nuw %struct.IndexBulkDeleteResult, ptr %57, i32 0, i32 2
  store double %56, ptr %58, align 8
  br label %59

59:                                               ; preds = %53, %45
  br label %60

60:                                               ; preds = %59, %29
  %61 = load ptr, ptr %5, align 8
  store ptr %61, ptr %3, align 8
  store i32 1, ptr %7, align 4
  br label %62

62:                                               ; preds = %60, %22, %12
  call void @llvm.lifetime.end.p0(i64 4, ptr %6) #8
  %63 = load ptr, ptr %3, align 8
  ret ptr %63
}