; Function Attrs: nounwind uwtable
define dso_local noundef ptr @btvacuumcleanup(ptr noundef %0, ptr noundef captures(address_is_null, ret: address, provenance) %1) #0 {
  %3 = getelementptr inbounds nuw i8, ptr %0, i64 16
  %4 = load i8, ptr %3, align 8, !range !4, !noundef !5
  %5 = trunc nuw i8 %4 to i1
  br i1 %5, label %31, label %6

6:                                                ; preds = %2
  %7 = icmp eq ptr %1, null
  br i1 %7, label %8, label %14

8:                                                ; preds = %6
  %9 = load ptr, ptr %0, align 8
  %10 = tail call zeroext i1 @_bt_vacuum_needs_cleanup(ptr noundef %9) #8
  br i1 %10, label %11, label %31

11:                                               ; preds = %8
  %12 = tail call ptr @palloc0(i64 noundef 40) #8
  tail call fastcc void @btvacuumscan(ptr noundef nonnull %0, ptr noundef %12, ptr noundef null, ptr noundef null, i16 noundef zeroext 0)
  %13 = getelementptr inbounds nuw i8, ptr %12, i64 4
  store i8 1, ptr %13, align 4
  br label %14

14:                                               ; preds = %11, %6
  %.017 = phi ptr [ %12, %11 ], [ %1, %6 ]
  %15 = getelementptr inbounds nuw i8, ptr %.017, i64 28
  %16 = load i32, ptr %15, align 4
  %17 = getelementptr inbounds nuw i8, ptr %.017, i64 32
  %18 = load i32, ptr %17, align 8
  %19 = sub i32 %16, %18
  %20 = load ptr, ptr %0, align 8
  tail call void @_bt_set_cleanup_info(ptr noundef %20, i32 noundef %19) #8
  %21 = getelementptr inbounds nuw i8, ptr %0, i64 18
  %22 = load i8, ptr %21, align 2, !range !4, !noundef !5
  %23 = trunc nuw i8 %22 to i1
  br i1 %23, label %31, label %24

24:                                               ; preds = %14
  %25 = getelementptr inbounds nuw i8, ptr %.017, i64 8
  %26 = load double, ptr %25, align 8
  %27 = getelementptr inbounds nuw i8, ptr %0, i64 24
  %28 = load double, ptr %27, align 8
  %29 = fcmp ogt double %26, %28
  br i1 %29, label %30, label %31

30:                                               ; preds = %24
  store double %28, ptr %25, align 8
  br label %31

31:                                               ; preds = %14, %30, %24, %8, %2
  %.0 = phi ptr [ %1, %2 ], [ null, %8 ], [ %.017, %24 ], [ %.017, %30 ], [ %.017, %14 ]
  ret ptr %.0
}